target datalayout = "e-m:e-p270:32:32-p271:32:32-p272:64:64-i64:64-i128:128-f80:128-n8:16:32:64-S128"
target triple = "x86_64-pc-linux-gnu"

%struct.RString = type { %struct.RBasic, i64, %union.anon }
%struct.RBasic = type { i64, i64 }
%union.anon = type { %struct.anon }
%struct.anon = type { ptr, %union.anon.0 }
%union.anon.0 = type { i64 }
%struct.anon.1 = type { [1 x i8] }

@bubblebabble_str_new.vowels = internal constant [6 x i8] c"aeiouy", align 1
@bubblebabble_str_new.consonants = internal constant [17 x i8] c"bcdfghklmnprstvzx", align 16
@rb_eRuntimeError = external global i64, align 8
@.str.5 = private unnamed_addr constant [23 x i8] c"digest string too long\00", align 1

; Function Attrs: inlinehint nounwind sspstrong willreturn memory(read) uwtable
define internal i64 @RB_FL_TEST_RAW(i64 noundef %0, i64 noundef %1) #4 {
  %3 = alloca i64, align 8
  %4 = alloca i64, align 8
  store i64 %0, ptr %3, align 8, !tbaa !6
  store i64 %1, ptr %4, align 8, !tbaa !6
  %5 = load i64, ptr %3, align 8, !tbaa !6
  %6 = inttoptr i64 %5 to ptr
  %7 = getelementptr inbounds nuw %struct.RBasic, ptr %6, i32 0, i32 0
  %8 = load i64, ptr %7, align 8, !tbaa !22
  %9 = load i64, ptr %4, align 8, !tbaa !6
  %10 = and i64 %8, %9
  ret i64 %10
}

; Function Attrs: inlinehint nounwind sspstrong willreturn memory(read) uwtable
define internal zeroext i1 @RB_FL_ANY_RAW(i64 noundef %0, i64 noundef %1) #4 {
  %3 = alloca i64, align 8
  %4 = alloca i64, align 8
  store i64 %0, ptr %3, align 8, !tbaa !6
  store i64 %1, ptr %4, align 8, !tbaa !6
  %5 = load i64, ptr %3, align 8, !tbaa !6
  %6 = load i64, ptr %4, align 8, !tbaa !6
  %7 = call i64 @RB_FL_TEST_RAW(i64 noundef %5, i64 noundef %6) #11
  %8 = icmp ne i64 %7, 0
  ret i1 %8
}

; Function Attrs: inlinehint nounwind sspstrong willreturn memory(read, argmem: readwrite) uwtable
define internal void @rbimpl_rstring_getmem(ptr dead_on_unwind noalias writable sret(%struct.RString) align 8 %0, i64 noundef %1) #8 {
  %3 = alloca i64, align 8
  store i64 %1, ptr %3, align 8, !tbaa !6
  %4 = load i64, ptr %3, align 8, !tbaa !6
  %5 = call zeroext i1 @RB_FL_ANY_RAW(i64 noundef %4, i64 noundef 8192) #11
  br i1 %5, label %6, label %9

6:                                                ; preds = %2
  %7 = load i64, ptr %3, align 8, !tbaa !6
  %8 = inttoptr i64 %7 to ptr
  call void @llvm.memcpy.p0.p0.i64(ptr align 8 %0, ptr align 8 %8, i64 40, i1 false), !tbaa.struct !21
  br label %20

9:                                                ; preds = %2
  %10 = load i64, ptr %3, align 8, !tbaa !6
  %11 = call i64 @RSTRING_LEN(i64 noundef %10) #11
  %12 = getelementptr inbounds nuw %struct.RString, ptr %0, i32 0, i32 1
  store i64 %11, ptr %12, align 8, !tbaa !18
  %13 = load i64, ptr %3, align 8, !tbaa !6
  %14 = inttoptr i64 %13 to ptr
  %15 = getelementptr inbounds nuw %struct.RString, ptr %14, i32 0, i32 2
  %16 = getelementptr inbounds nuw %struct.anon.1, ptr %15, i32 0, i32 0
  %17 = getelementptr inbounds [1 x i8], ptr %16, i64 0, i64 0
  %18 = getelementptr inbounds nuw %struct.RString, ptr %0, i32 0, i32 2
  %19 = getelementptr inbounds nuw %struct.anon, ptr %18, i32 0, i32 0
  store ptr %17, ptr %19, align 8, !tbaa !17
  br label %20

20:                                               ; preds = %9, %6
  ret void
}

; Function Attrs: inlinehint nounwind sspstrong willreturn memory(read) uwtable
define internal i64 @RSTRING_LEN(i64 noundef %0) #4 {
  %2 = alloca i64, align 8
  store i64 %0, ptr %2, align 8, !tbaa !6
  %3 = load i64, ptr %2, align 8, !tbaa !6
  %4 = inttoptr i64 %3 to ptr
  %5 = getelementptr inbounds nuw %struct.RString, ptr %4, i32 0, i32 1
  %6 = load i64, ptr %5, align 8, !tbaa !18
  ret i64 %6
}

; Function Attrs: inlinehint nounwind sspstrong uwtable
define internal ptr @RSTRING_PTR(i64 noundef %0) #3 {
  %2 = alloca i64, align 8
  %3 = alloca ptr, align 8
  %4 = alloca %struct.RString, align 8
  store i64 %0, ptr %2, align 8, !tbaa !6
  call void @llvm.lifetime.start.p0(i64 8, ptr %3) #10
  %5 = load i64, ptr %2, align 8, !tbaa !6
  call void @rbimpl_rstring_getmem(ptr dead_on_unwind writable sret(%struct.RString) align 8 %4, i64 noundef %5) #13
  %6 = getelementptr inbounds nuw %struct.RString, ptr %4, i32 0, i32 2
  %7 = getelementptr inbounds nuw %struct.anon, ptr %6, i32 0, i32 0
  %8 = load ptr, ptr %7, align 8, !tbaa !17
  store ptr %8, ptr %3, align 8, !tbaa !10
  %9 = load ptr, ptr %3, align 8, !tbaa !10
  call void @llvm.lifetime.end.p0(i64 8, ptr %3) #10
  ret ptr %9
}

; Function Attrs: nounwind sspstrong uwtable
define internal i64 @bubblebabble_str_new(i64 noundef %0) #0 {
  %2 = alloca i64, align 8
  %3 = alloca ptr, align 8
  %4 = alloca i64, align 8
  %5 = alloca i64, align 8
  %6 = alloca ptr, align 8
  %7 = alloca i64, align 8
  %8 = alloca i64, align 8
  %9 = alloca i64, align 8
  %10 = alloca i8, align 1
  %11 = alloca i8, align 1
  %12 = alloca i32, align 4
  store i64 %0, ptr %2, align 8, !tbaa !6
  call void @llvm.lifetime.start.p0(i64 8, ptr %3) #10
  call void @llvm.lifetime.start.p0(i64 8, ptr %4) #10
  call void @llvm.lifetime.start.p0(i64 8, ptr %5) #10
  call void @llvm.lifetime.start.p0(i64 8, ptr %6) #10
  call void @llvm.lifetime.start.p0(i64 8, ptr %7) #10
  call void @llvm.lifetime.start.p0(i64 8, ptr %8) #10
  call void @llvm.lifetime.start.p0(i64 8, ptr %9) #10
  store i64 1, ptr %9, align 8, !tbaa !6
  %13 = call i64 @rb_string_value(ptr noundef %2)
  %14 = load i64, ptr %2, align 8, !tbaa !6
  %15 = call ptr @RSTRING_PTR(i64 noundef %14)
  store ptr %15, ptr %3, align 8, !tbaa !10
  %16 = load i64, ptr %2, align 8, !tbaa !6
  %17 = call i64 @RSTRING_LEN(i64 noundef %16) #11
  store i64 %17, ptr %4, align 8, !tbaa !6
  %18 = load i64, ptr %4, align 8, !tbaa !6
  %19 = or i64 %18, 1
  %20 = icmp ult i64 3074457345618258601, %19
  br i1 %20, label %21, label %23

21:                                               ; preds = %1
  %22 = load i64, ptr @rb_eRuntimeError, align 8, !tbaa !6
  call void (i64, ptr, ...) @rb_raise(i64 noundef %22, ptr noundef @.str.5) #12
  unreachable

23:                                               ; preds = %1
  %24 = load i64, ptr %4, align 8, !tbaa !6
  %25 = or i64 %24, 1
  %26 = mul i64 %25, 3
  %27 = add i64 %26, 2
  %28 = call i1 @llvm.is.constant.i64(i64 %27)
  %29 = select i1 %28, ptr @rb_str_new_static, ptr @rb_str_new
  %30 = load i64, ptr %4, align 8, !tbaa !6
  %31 = or i64 %30, 1
  %32 = mul i64 %31, 3
  %33 = add i64 %32, 2
  %34 = call i64 %29(ptr noundef null, i64 noundef %33)
  store i64 %34, ptr %5, align 8, !tbaa !6
  %35 = load i64, ptr %5, align 8, !tbaa !6
  %36 = call ptr @RSTRING_PTR(i64 noundef %35)
  store ptr %36, ptr %6, align 8, !tbaa !10
  store i64 0, ptr %8, align 8, !tbaa !6
  store i64 0, ptr %7, align 8, !tbaa !6
  %37 = load ptr, ptr %6, align 8, !tbaa !10
  %38 = load i64, ptr %8, align 8, !tbaa !6
  %39 = add i64 %38, 1
  store i64 %39, ptr %8, align 8, !tbaa !6
  %40 = getelementptr inbounds nuw i8, ptr %37, i64 %38
  store i8 120, ptr %40, align 1, !tbaa !17
  br label %41

41:                                               ; preds = %160, %23
  call void @llvm.lifetime.start.p0(i64 1, ptr %10) #10
  call void @llvm.lifetime.start.p0(i64 1, ptr %11) #10
  %42 = load i64, ptr %7, align 8, !tbaa !6
  %43 = load i64, ptr %4, align 8, !tbaa !6
  %44 = icmp uge i64 %42, %43
  br i1 %44, label %45, label %67

45:                                               ; preds = %41
  %46 = load i64, ptr %9, align 8, !tbaa !6
  %47 = urem i64 %46, 6
  %48 = getelementptr inbounds nuw [6 x i8], ptr @bubblebabble_str_new.vowels, i64 0, i64 %47
  %49 = load i8, ptr %48, align 1, !tbaa !17
  %50 = load ptr, ptr %6, align 8, !tbaa !10
  %51 = load i64, ptr %8, align 8, !tbaa !6
  %52 = add i64 %51, 1
  store i64 %52, ptr %8, align 8, !tbaa !6
  %53 = getelementptr inbounds nuw i8, ptr %50, i64 %51
  store i8 %49, ptr %53, align 1, !tbaa !17
  %54 = load i8, ptr getelementptr inbounds ([17 x i8], ptr @bubblebabble_str_new.consonants, i64 0, i64 16), align 16, !tbaa !17
  %55 = load ptr, ptr %6, align 8, !tbaa !10
  %56 = load i64, ptr %8, align 8, !tbaa !6
  %57 = add i64 %56, 1
  store i64 %57, ptr %8, align 8, !tbaa !6
  %58 = getelementptr inbounds nuw i8, ptr %55, i64 %56
  store i8 %54, ptr %58, align 1, !tbaa !17
  %59 = load i64, ptr %9, align 8, !tbaa !6
  %60 = udiv i64 %59, 6
  %61 = getelementptr inbounds nuw [6 x i8], ptr @bubblebabble_str_new.vowels, i64 0, i64 %60
  %62 = load i8, ptr %61, align 1, !tbaa !17
  %63 = load ptr, ptr %6, align 8, !tbaa !10
  %64 = load i64, ptr %8, align 8, !tbaa !6
  %65 = add i64 %64, 1
  store i64 %65, ptr %8, align 8, !tbaa !6
  %66 = getelementptr inbounds nuw i8, ptr %63, i64 %64
  store i8 %62, ptr %66, align 1, !tbaa !17
  store i32 2, ptr %12, align 4
  br label %158

67:                                               ; preds = %41
  %68 = load ptr, ptr %3, align 8, !tbaa !10
  %69 = load i64, ptr %7, align 8, !tbaa !6
  %70 = add i64 %69, 1
  store i64 %70, ptr %7, align 8, !tbaa !6
  %71 = getelementptr inbounds nuw i8, ptr %68, i64 %69
  %72 = load i8, ptr %71, align 1, !tbaa !17
  store i8 %72, ptr %10, align 1, !tbaa !17
  %73 = load i8, ptr %10, align 1, !tbaa !17
  %74 = zext i8 %73 to i32
  %75 = ashr i32 %74, 6
  %76 = and i32 %75, 3
  %77 = sext i32 %76 to i64
  %78 = load i64, ptr %9, align 8, !tbaa !6
  %79 = add i64 %77, %78
  %80 = urem i64 %79, 6
  %81 = getelementptr inbounds nuw [6 x i8], ptr @bubblebabble_str_new.vowels, i64 0, i64 %80
  %82 = load i8, ptr %81, align 1, !tbaa !17
  %83 = load ptr, ptr %6, align 8, !tbaa !10
  %84 = load i64, ptr %8, align 8, !tbaa !6
  %85 = add i64 %84, 1
  store i64 %85, ptr %8, align 8, !tbaa !6
  %86 = getelementptr inbounds nuw i8, ptr %83, i64 %84
  store i8 %82, ptr %86, align 1, !tbaa !17
  %87 = load i8, ptr %10, align 1, !tbaa !17
  %88 = zext i8 %87 to i32
  %89 = ashr i32 %88, 2
  %90 = and i32 %89, 15
  %91 = sext i32 %90 to i64
  %92 = getelementptr inbounds [17 x i8], ptr @bubblebabble_str_new.consonants, i64 0, i64 %91
  %93 = load i8, ptr %92, align 1, !tbaa !17
  %94 = load ptr, ptr %6, align 8, !tbaa !10
  %95 = load i64, ptr %8, align 8, !tbaa !6
  %96 = add i64 %95, 1
  store i64 %96, ptr %8, align 8, !tbaa !6
  %97 = getelementptr inbounds nuw i8, ptr %94, i64 %95
  store i8 %93, ptr %97, align 1, !tbaa !17
  %98 = load i8, ptr %10, align 1, !tbaa !17
  %99 = zext i8 %98 to i32
  %100 = and i32 %99, 3
  %101 = sext i32 %100 to i64
  %102 = load i64, ptr %9, align 8, !tbaa !6
  %103 = udiv i64 %102, 6
  %104 = add i64 %101, %103
  %105 = urem i64 %104, 6
  %106 = getelementptr inbounds nuw [6 x i8], ptr @bubblebabble_str_new.vowels, i64 0, i64 %105
  %107 = load i8, ptr %106, align 1, !tbaa !17
  %108 = load ptr, ptr %6, align 8, !tbaa !10
  %109 = load i64, ptr %8, align 8, !tbaa !6
  %110 = add i64 %109, 1
  store i64 %110, ptr %8, align 8, !tbaa !6
  %111 = getelementptr inbounds nuw i8, ptr %108, i64 %109
  store i8 %107, ptr %111, align 1, !tbaa !17
  %112 = load i64, ptr %7, align 8, !tbaa !6
  %113 = load i64, ptr %4, align 8, !tbaa !6
  %114 = icmp uge i64 %112, %113
  br i1 %114, label %115, label %116

115:                                              ; preds = %67
  store i32 2, ptr %12, align 4
  br label %158

116:                                              ; preds = %67
  %117 = load ptr, ptr %3, align 8, !tbaa !10
  %118 = load i64, ptr %7, align 8, !tbaa !6
  %119 = add i64 %118, 1
  store i64 %119, ptr %7, align 8, !tbaa !6
  %120 = getelementptr inbounds nuw i8, ptr %117, i64 %118
  %121 = load i8, ptr %120, align 1, !tbaa !17
  store i8 %121, ptr %11, align 1, !tbaa !17
  %122 = load i8, ptr %11, align 1, !tbaa !17
  %123 = zext i8 %122 to i32
  %124 = ashr i32 %123, 4
  %125 = and i32 %124, 15
  %126 = sext i32 %125 to i64
  %127 = getelementptr inbounds [17 x i8], ptr @bubblebabble_str_new.consonants, i64 0, i64 %126
  %128 = load i8, ptr %127, align 1, !tbaa !17
  %129 = load ptr, ptr %6, align 8, !tbaa !10
  %130 = load i64, ptr %8, align 8, !tbaa !6
  %131 = add i64 %130, 1
  store i64 %131, ptr %8, align 8, !tbaa !6
  %132 = getelementptr inbounds nuw i8, ptr %129, i64 %130
  store i8 %128, ptr %132, align 1, !tbaa !17
  %133 = load ptr, ptr %6, align 8, !tbaa !10
  %134 = load i64, ptr %8, align 8, !tbaa !6
  %135 = add i64 %134, 1
  store i64 %135, ptr %8, align 8, !tbaa !6
  %136 = getelementptr inbounds nuw i8, ptr %133, i64 %134
  store i8 45, ptr %136, align 1, !tbaa !17
  %137 = load i8, ptr %11, align 1, !tbaa !17
  %138 = zext i8 %137 to i32
  %139 = and i32 %138, 15
  %140 = sext i32 %139 to i64
  %141 = getelementptr inbounds [17 x i8], ptr @bubblebabble_str_new.consonants, i64 0, i64 %140
  %142 = load i8, ptr %141, align 1, !tbaa !17
  %143 = load ptr, ptr %6, align 8, !tbaa !10
  %144 = load i64, ptr %8, align 8, !tbaa !6
  %145 = add i64 %144, 1
  store i64 %145, ptr %8, align 8, !tbaa !6
  %146 = getelementptr inbounds nuw i8, ptr %143, i64 %144
  store i8 %142, ptr %146, align 1, !tbaa !17
  %147 = load i64, ptr %9, align 8, !tbaa !6
  %148 = mul i64 %147, 5
  %149 = load i8, ptr %10, align 1, !tbaa !17
  %150 = zext i8 %149 to i32
  %151 = mul nsw i32 %150, 7
  %152 = sext i32 %151 to i64
  %153 = add i64 %148, %152
  %154 = load i8, ptr %11, align 1, !tbaa !17
  %155 = zext i8 %154 to i64
  %156 = add i64 %153, %155
  %157 = urem i64 %156, 36
  store i64 %157, ptr %9, align 8, !tbaa !6
  store i32 0, ptr %12, align 4
  br label %158

158:                                              ; preds = %116, %115, %45
  call void @llvm.lifetime.end.p0(i64 1, ptr %11) #10
  call void @llvm.lifetime.end.p0(i64 1, ptr %10) #10
  %159 = load i32, ptr %12, align 4
  switch i32 %159, label %166 [
    i32 0, label %160
    i32 2, label %161
  ]

160:                                              ; preds = %158
  br label %41

161:                                              ; preds = %158
  %162 = load ptr, ptr %6, align 8, !tbaa !10
  %163 = load i64, ptr %8, align 8, !tbaa !6
  %164 = getelementptr inbounds nuw i8, ptr %162, i64 %163
  store i8 120, ptr %164, align 1, !tbaa !17
  %165 = load i64, ptr %5, align 8, !tbaa !6
  store i32 1, ptr %12, align 4
  call void @llvm.lifetime.end.p0(i64 8, ptr %9) #10
  call void @llvm.lifetime.end.p0(i64 8, ptr %8) #10
  call void @llvm.lifetime.end.p0(i64 8, ptr %7) #10
  call void @llvm.lifetime.end.p0(i64 8, ptr %6) #10
  call void @llvm.lifetime.end.p0(i64 8, ptr %5) #10
  call void @llvm.lifetime.end.p0(i64 8, ptr %4) #10
  call void @llvm.lifetime.end.p0(i64 8, ptr %3) #10
  ret i64 %165

166:                                              ; preds = %158
  unreachable
}

; Function Attrs: nounwind sspstrong uwtable
define internal i64 @rb_digest_s_bubblebabble(i64 noundef %0, i64 noundef %1) #0 {
  %3 = alloca i64, align 8
  %4 = alloca i64, align 8
  store i64 %0, ptr %3, align 8, !tbaa !6
  store i64 %1, ptr %4, align 8, !tbaa !6
  %5 = load i64, ptr %4, align 8, !tbaa !6
  %6 = call i64 @bubblebabble_str_new(i64 noundef %5)
  ret i64 %6
}