; Function Attrs: nounwind sspstrong uwtable
define internal i64 @rb_digest_s_bubblebabble(i64 %0, i64 noundef %1) #0 {
  %3 = alloca i64, align 8
  call void @llvm.lifetime.start.p0(i64 8, ptr nonnull %3)
  store i64 %1, ptr %3, align 8, !tbaa !6
  %4 = call i64 @rb_string_value(ptr noundef nonnull %3) #4
  %5 = load i64, ptr %3, align 8, !tbaa !6
  %6 = inttoptr i64 %5 to ptr
  %7 = load i64, ptr %6, align 8, !tbaa !10, !noalias !12
  %8 = and i64 %7, 8192
  %.not.i.i.i = icmp eq i64 %8, 0
  %9 = getelementptr inbounds nuw i8, ptr %6, i64 24
  br i1 %.not.i.i.i, label %RSTRING_PTR.exit.i, label %10

10:                                               ; preds = %2
  %.sroa.2.0.copyload.i.i = load ptr, ptr %9, align 8
  br label %RSTRING_PTR.exit.i

RSTRING_PTR.exit.i:                               ; preds = %10, %2
  %.sroa.2.0.i.i = phi ptr [ %.sroa.2.0.copyload.i.i, %10 ], [ %9, %2 ]
  %11 = getelementptr inbounds nuw i8, ptr %6, i64 16
  %12 = load i64, ptr %11, align 8, !tbaa !15
  %13 = icmp ugt i64 %12, 3074457345618258601
  br i1 %13, label %14, label %16

14:                                               ; preds = %RSTRING_PTR.exit.i
  %15 = load i64, ptr @rb_eRuntimeError, align 8, !tbaa !6
  call void (i64, ptr, ...) @rb_raise(i64 noundef %15, ptr noundef nonnull @.str.5) #5
  unreachable

16:                                               ; preds = %RSTRING_PTR.exit.i
  %17 = or i64 %12, 1
  %18 = mul nuw nsw i64 %17, 3
  %19 = add nuw nsw i64 %18, 2
  %20 = call i64 @rb_str_new(ptr noundef null, i64 noundef %19) #4, !callees !17
  %21 = inttoptr i64 %20 to ptr
  %22 = load i64, ptr %21, align 8, !tbaa !10, !noalias !18
  %23 = and i64 %22, 8192
  %.not.i.i57.i = icmp eq i64 %23, 0
  %24 = getelementptr inbounds nuw i8, ptr %21, i64 24
  br i1 %.not.i.i57.i, label %RSTRING_PTR.exit60.i, label %25

25:                                               ; preds = %16
  %.sroa.2.0.copyload.i58.i = load ptr, ptr %24, align 8
  br label %RSTRING_PTR.exit60.i

RSTRING_PTR.exit60.i:                             ; preds = %25, %16
  %.sroa.2.0.i59.i = phi ptr [ %.sroa.2.0.copyload.i58.i, %25 ], [ %24, %16 ]
  store i8 120, ptr %.sroa.2.0.i59.i, align 1, !tbaa !21
  %.not69.not.i = icmp eq i64 %12, 0
  br i1 %.not69.not.i, label %._crit_edge.i, label %.lr.ph.i

._crit_edge.i.loopexit:                           ; preds = %63
  %26 = trunc nuw nsw i64 %86 to i8
  br label %._crit_edge.i

._crit_edge.i:                                    ; preds = %._crit_edge.i.loopexit, %RSTRING_PTR.exit60.i
  %.050.lcssa.i = phi i8 [ 1, %RSTRING_PTR.exit60.i ], [ %26, %._crit_edge.i.loopexit ]
  %.048.lcssa.i = phi i64 [ 1, %RSTRING_PTR.exit60.i ], [ %78, %._crit_edge.i.loopexit ]
  %27 = urem i8 %.050.lcssa.i, 6
  %.zext.i = zext nneg i8 %27 to i64
  %28 = getelementptr inbounds nuw [6 x i8], ptr @bubblebabble_str_new.vowels, i64 0, i64 %.zext.i
  %29 = load i8, ptr %28, align 1, !tbaa !21
  %30 = getelementptr inbounds nuw i8, ptr %.sroa.2.0.i59.i, i64 %.048.lcssa.i
  store i8 %29, ptr %30, align 1, !tbaa !21
  %31 = getelementptr i8, ptr %30, i64 1
  store i8 120, ptr %31, align 1, !tbaa !21
  %32 = udiv i8 %.050.lcssa.i, 6
  %.zext78.i = zext nneg i8 %32 to i64
  %33 = getelementptr inbounds nuw [6 x i8], ptr @bubblebabble_str_new.vowels, i64 0, i64 %.zext78.i
  %34 = load i8, ptr %33, align 1, !tbaa !21
  %35 = add i64 %.048.lcssa.i, 3
  %36 = getelementptr i8, ptr %30, i64 2
  store i8 %34, ptr %36, align 1, !tbaa !21
  br label %bubblebabble_str_new.exit

.lr.ph.i:                                         ; preds = %RSTRING_PTR.exit60.i, %63
  %.04772.i = phi i64 [ %64, %63 ], [ 0, %RSTRING_PTR.exit60.i ]
  %.04871.i = phi i64 [ %78, %63 ], [ 1, %RSTRING_PTR.exit60.i ]
  %.05070.i = phi i64 [ %86, %63 ], [ 1, %RSTRING_PTR.exit60.i ]
  %37 = or disjoint i64 %.04772.i, 1
  %38 = getelementptr inbounds nuw i8, ptr %.sroa.2.0.i.i, i64 %.04772.i
  %39 = load i8, ptr %38, align 1, !tbaa !21
  %40 = zext i8 %39 to i32
  %41 = lshr i32 %40, 6
  %42 = zext nneg i32 %41 to i64
  %43 = add nuw nsw i64 %.05070.i, %42
  %44 = urem i64 %43, 6
  %45 = getelementptr inbounds nuw [6 x i8], ptr @bubblebabble_str_new.vowels, i64 0, i64 %44
  %46 = load i8, ptr %45, align 1, !tbaa !21
  %47 = getelementptr inbounds nuw i8, ptr %.sroa.2.0.i59.i, i64 %.04871.i
  store i8 %46, ptr %47, align 1, !tbaa !21
  %48 = lshr i32 %40, 2
  %49 = and i32 %48, 15
  %50 = zext nneg i32 %49 to i64
  %51 = getelementptr inbounds nuw [17 x i8], ptr @bubblebabble_str_new.consonants, i64 0, i64 %50
  %52 = load i8, ptr %51, align 1, !tbaa !21
  %53 = getelementptr i8, ptr %47, i64 1
  store i8 %52, ptr %53, align 1, !tbaa !21
  %54 = and i32 %40, 3
  %55 = zext nneg i32 %54 to i64
  %56 = udiv i64 %.05070.i, 6
  %57 = add nuw nsw i64 %56, %55
  %58 = urem i64 %57, 6
  %59 = getelementptr inbounds nuw [6 x i8], ptr @bubblebabble_str_new.vowels, i64 0, i64 %58
  %60 = load i8, ptr %59, align 1, !tbaa !21
  %61 = add i64 %.04871.i, 3
  %62 = getelementptr i8, ptr %47, i64 2
  store i8 %60, ptr %62, align 1, !tbaa !21
  %.not56.i = icmp ult i64 %37, %12
  br i1 %.not56.i, label %63, label %bubblebabble_str_new.exit

63:                                               ; preds = %.lr.ph.i
  %64 = add nuw i64 %.04772.i, 2
  %65 = getelementptr inbounds nuw i8, ptr %.sroa.2.0.i.i, i64 %37
  %66 = load i8, ptr %65, align 1, !tbaa !21
  %67 = zext i8 %66 to i32
  %68 = lshr i32 %67, 4
  %69 = zext nneg i32 %68 to i64
  %70 = getelementptr inbounds nuw [17 x i8], ptr @bubblebabble_str_new.consonants, i64 0, i64 %69
  %71 = load i8, ptr %70, align 1, !tbaa !21
  %72 = getelementptr inbounds nuw i8, ptr %.sroa.2.0.i59.i, i64 %61
  store i8 %71, ptr %72, align 1, !tbaa !21
  %73 = getelementptr i8, ptr %47, i64 4
  store i8 45, ptr %73, align 1, !tbaa !21
  %74 = and i32 %67, 15
  %75 = zext nneg i32 %74 to i64
  %76 = getelementptr inbounds nuw [17 x i8], ptr @bubblebabble_str_new.consonants, i64 0, i64 %75
  %77 = load i8, ptr %76, align 1, !tbaa !21
  %78 = add i64 %.04871.i, 6
  %79 = getelementptr i8, ptr %47, i64 5
  store i8 %77, ptr %79, align 1, !tbaa !21
  %80 = mul nuw nsw i64 %.05070.i, 5
  %81 = mul nuw nsw i32 %40, 7
  %82 = zext nneg i32 %81 to i64
  %83 = add nuw nsw i64 %80, %82
  %84 = zext i8 %66 to i64
  %85 = add nuw nsw i64 %83, %84
  %86 = urem i64 %85, 36
  %.not.i = icmp ult i64 %64, %12
  br i1 %.not.i, label %.lr.ph.i, label %._crit_edge.i.loopexit

bubblebabble_str_new.exit:                        ; preds = %.lr.ph.i, %._crit_edge.i
  %.149.ph.i = phi i64 [ %35, %._crit_edge.i ], [ %61, %.lr.ph.i ]
  %87 = getelementptr inbounds nuw i8, ptr %.sroa.2.0.i59.i, i64 %.149.ph.i
  store i8 120, ptr %87, align 1, !tbaa !21
  call void @llvm.lifetime.end.p0(i64 8, ptr nonnull %3)
  ret i64 %20
}